target datalayout = "e-m:e-p270:32:32-p271:32:32-p272:64:64-i64:64-i128:128-f80:128-n8:16:32:64-S128"
target triple = "x86_64-pc-linux-gnu"

%struct.Gia_Man_t_ = type { ptr, ptr, i32, i32, i32, i32, ptr, ptr, i32, i32, i32, ptr, ptr, %struct.Vec_Int_t_, %struct.Vec_Int_t_, i32, i32, i32, %struct.Vec_Int_t_, ptr, ptr, ptr, i32, i32, i32, i32, ptr, ptr, ptr, ptr, ptr, i32, i32, ptr, i32, ptr, ptr, ptr, ptr, ptr, ptr, ptr, ptr, ptr, ptr, ptr, ptr, ptr, ptr, ptr, ptr, ptr, ptr, %struct.Vec_Int_t_, %struct.Vec_Int_t_, ptr, ptr, ptr, ptr, ptr, ptr, ptr, ptr, ptr, ptr, ptr, ptr, ptr, ptr, ptr, ptr, ptr, ptr, ptr, ptr, ptr, i32, float, float, ptr, ptr, i32, ptr, ptr, ptr, ptr, ptr, ptr, ptr, ptr, ptr, ptr, ptr, ptr, ptr, ptr, ptr, i64, i64, ptr, ptr, i32, i32, i32, i32, i32, i32, i32, i32, i32, i32, i32, i32, ptr, ptr, ptr, ptr, ptr, ptr, ptr, ptr, i32, i32, i32, ptr, i32, i32, ptr, ptr, ptr, ptr, ptr, ptr, i32, i32, ptr, %struct.Vec_Int_t_, %struct.Vec_Int_t_, %struct.Vec_Int_t_, ptr, ptr, ptr }
%struct.Vec_Int_t_ = type { i32, i32, ptr }
%struct.Lms_Man_t_ = type { i32, i32, i32, i32, i32, ptr, ptr, ptr, ptr, ptr, ptr, ptr, ptr, ptr, ptr, ptr, ptr, [1024 x i64], [1024 x i64], i32, i32, i32, i32, i32, i32, i32, i32, i32, i32, i64, i64, i64, i64, i64, i64, i64 }
%struct.If_Par_t_ = type { i32, i32, i32, i32, i32, i32, float, float, i32, i32, i32, i32, i32, i32, i32, i32, i32, i32, i32, i32, i32, i32, i32, i32, i32, i32, i32, i32, i32, i32, i32, i32, i32, i32, i32, i32, i32, i32, i32, i32, i32, i32, i32, i32, i32, i32, i32, i32, i32, ptr, float, i32, i32, i32, i32, i32, i32, i32, i32, i32, i32, i32, i32, i32, i32, float, float, float, ptr, ptr, ptr, ptr, ptr, ptr, ptr, ptr, ptr }
%struct.timespec = type { i64, i64 }

@s_pMan3 = internal global ptr null, align 8
@.str.37 = private unnamed_addr constant [46 x i8] c"Performing recoding structures with choices.\0A\00", align 1

; Function Attrs: nounwind uwtable
define internal i32 @Vec_IntSize(ptr noundef %0) #0 {
  %2 = alloca ptr, align 8
  store ptr %0, ptr %2, align 8
  %3 = load ptr, ptr %2, align 8
  %4 = getelementptr inbounds %struct.Vec_Int_t_, ptr %3, i32 0, i32 1
  %5 = load i32, ptr %4, align 4
  ret i32 %5
}

; Function Attrs: nounwind uwtable
define internal i64 @Abc_Clock() #0 {
  %1 = alloca i64, align 8
  %2 = alloca %struct.timespec, align 8
  %3 = alloca i64, align 8
  %4 = call i32 @clock_gettime(i32 noundef 1, ptr noundef %2) #12
  %5 = icmp slt i32 %4, 0
  br i1 %5, label %6, label %7

6:                                                ; preds = %0
  store i64 -1, ptr %1, align 8
  br label %18

7:                                                ; preds = %0
  %8 = getelementptr inbounds %struct.timespec, ptr %2, i32 0, i32 0
  %9 = load i64, ptr %8, align 8
  %10 = mul nsw i64 %9, 1000000
  store i64 %10, ptr %3, align 8
  %11 = getelementptr inbounds %struct.timespec, ptr %2, i32 0, i32 1
  %12 = load i64, ptr %11, align 8
  %13 = mul nsw i64 %12, 1000000
  %14 = sdiv i64 %13, 1000000000
  %15 = load i64, ptr %3, align 8
  %16 = add nsw i64 %15, %14
  store i64 %16, ptr %3, align 8
  %17 = load i64, ptr %3, align 8
  store i64 %17, ptr %1, align 8
  br label %18

18:                                               ; preds = %7, %6
  %19 = load i64, ptr %1, align 8
  ret i64 %19
}

; Function Attrs: nounwind uwtable
define void @Abc_NtkRecAdd3(ptr noundef %0, i32 noundef %1) #0 {
  %3 = alloca ptr, align 8
  %4 = alloca i32, align 4
  %5 = alloca %struct.If_Par_t_, align 8
  %6 = alloca ptr, align 8
  %7 = alloca ptr, align 8
  %8 = alloca i32, align 4
  store ptr %0, ptr %3, align 8
  store i32 %1, ptr %4, align 4
  store ptr %5, ptr %6, align 8
  %9 = call i64 @Abc_Clock()
  %10 = trunc i64 %9 to i32
  store i32 %10, ptr %8, align 4
  %11 = load ptr, ptr %3, align 8
  %12 = call i32 @Abc_NtkGetChoiceNum(ptr noundef %11)
  %13 = icmp ne i32 %12, 0
  br i1 %13, label %14, label %16

14:                                               ; preds = %2
  %15 = call i32 (ptr, ...) @printf(ptr noundef @.str.37)
  br label %16

16:                                               ; preds = %14, %2
  %17 = load ptr, ptr @s_pMan3, align 8
  %18 = getelementptr inbounds %struct.Lms_Man_t_, ptr %17, i32 0, i32 4
  store i32 1, ptr %18, align 8
  %19 = load ptr, ptr @s_pMan3, align 8
  %20 = getelementptr inbounds %struct.Lms_Man_t_, ptr %19, i32 0, i32 5
  %21 = load ptr, ptr %20, align 8
  %22 = icmp ne ptr %21, null
  br i1 %22, label %23, label %34

23:                                               ; preds = %16
  %24 = load ptr, ptr @s_pMan3, align 8
  %25 = getelementptr inbounds %struct.Lms_Man_t_, ptr %24, i32 0, i32 5
  %26 = load ptr, ptr %25, align 8
  %27 = getelementptr inbounds %struct.Gia_Man_t_, ptr %26, i32 0, i32 14
  %28 = call i32 @Vec_IntSize(ptr noundef %27)
  %29 = icmp eq i32 %28, 0
  br i1 %29, label %30, label %34

30:                                               ; preds = %23
  %31 = load ptr, ptr @s_pMan3, align 8
  %32 = getelementptr inbounds %struct.Lms_Man_t_, ptr %31, i32 0, i32 5
  %33 = load ptr, ptr %32, align 8
  call void @Gia_ManHashStart(ptr noundef %33)
  br label %34

34:                                               ; preds = %30, %23, %16
  %35 = load ptr, ptr %6, align 8
  call void @llvm.memset.p0.i64(ptr align 8 %35, i8 0, i64 352, i1 false)
  %36 = load ptr, ptr @s_pMan3, align 8
  %37 = getelementptr inbounds %struct.Lms_Man_t_, ptr %36, i32 0, i32 0
  %38 = load i32, ptr %37, align 8
  %39 = load ptr, ptr %6, align 8
  %40 = getelementptr inbounds %struct.If_Par_t_, ptr %39, i32 0, i32 0
  store i32 %38, ptr %40, align 8
  %41 = load ptr, ptr @s_pMan3, align 8
  %42 = getelementptr inbounds %struct.Lms_Man_t_, ptr %41, i32 0, i32 2
  %43 = load i32, ptr %42, align 8
  %44 = load ptr, ptr %6, align 8
  %45 = getelementptr inbounds %struct.If_Par_t_, ptr %44, i32 0, i32 1
  store i32 %43, ptr %45, align 4
  %46 = load ptr, ptr %6, align 8
  %47 = getelementptr inbounds %struct.If_Par_t_, ptr %46, i32 0, i32 6
  store float -1.000000e+00, ptr %47, align 8
  %48 = load ptr, ptr %6, align 8
  %49 = getelementptr inbounds %struct.If_Par_t_, ptr %48, i32 0, i32 7
  store float 0x3F747AE140000000, ptr %49, align 4
  %50 = load ptr, ptr %6, align 8
  %51 = getelementptr inbounds %struct.If_Par_t_, ptr %50, i32 0, i32 14
  store i32 1, ptr %51, align 8
  %52 = load i32, ptr %4, align 4
  %53 = icmp ne i32 %52, 0
  br i1 %53, label %54, label %63

54:                                               ; preds = %34
  %55 = load ptr, ptr %6, align 8
  %56 = getelementptr inbounds %struct.If_Par_t_, ptr %55, i32 0, i32 53
  store i32 1, ptr %56, align 4
  %57 = load ptr, ptr %6, align 8
  %58 = getelementptr inbounds %struct.If_Par_t_, ptr %57, i32 0, i32 21
  store i32 0, ptr %58, align 4
  %59 = load ptr, ptr %6, align 8
  %60 = getelementptr inbounds %struct.If_Par_t_, ptr %59, i32 0, i32 54
  store i32 1, ptr %60, align 8
  %61 = load ptr, ptr %6, align 8
  %62 = getelementptr inbounds %struct.If_Par_t_, ptr %61, i32 0, i32 22
  store i32 1, ptr %62, align 8
  br label %72

63:                                               ; preds = %34
  %64 = load ptr, ptr %6, align 8
  %65 = getelementptr inbounds %struct.If_Par_t_, ptr %64, i32 0, i32 53
  store i32 1, ptr %65, align 4
  %66 = load ptr, ptr %6, align 8
  %67 = getelementptr inbounds %struct.If_Par_t_, ptr %66, i32 0, i32 21
  store i32 1, ptr %67, align 4
  %68 = load ptr, ptr %6, align 8
  %69 = getelementptr inbounds %struct.If_Par_t_, ptr %68, i32 0, i32 54
  store i32 0, ptr %69, align 8
  %70 = load ptr, ptr %6, align 8
  %71 = getelementptr inbounds %struct.If_Par_t_, ptr %70, i32 0, i32 22
  store i32 0, ptr %71, align 8
  br label %72

72:                                               ; preds = %63, %54
  %73 = load ptr, ptr %6, align 8
  %74 = getelementptr inbounds %struct.If_Par_t_, ptr %73, i32 0, i32 51
  store i32 0, ptr %74, align 4
  %75 = load ptr, ptr %6, align 8
  %76 = getelementptr inbounds %struct.If_Par_t_, ptr %75, i32 0, i32 71
  store ptr null, ptr %76, align 8
  %77 = load ptr, ptr %6, align 8
  %78 = getelementptr inbounds %struct.If_Par_t_, ptr %77, i32 0, i32 72
  store ptr @Abc_NtkRecAddCut3, ptr %78, align 8
  %79 = load ptr, ptr %3, align 8
  %80 = load ptr, ptr %6, align 8
  %81 = call ptr @Abc_NtkIf(ptr noundef %79, ptr noundef %80)
  store ptr %81, ptr %7, align 8
  %82 = load ptr, ptr %7, align 8
  call void @Abc_NtkDelete(ptr noundef %82)
  %83 = call i64 @Abc_Clock()
  %84 = load i32, ptr %8, align 4
  %85 = sext i32 %84 to i64
  %86 = sub nsw i64 %83, %85
  %87 = load ptr, ptr @s_pMan3, align 8
  %88 = getelementptr inbounds %struct.Lms_Man_t_, ptr %87, i32 0, i32 35
  %89 = load i64, ptr %88, align 8
  %90 = add nsw i64 %89, %86
  store i64 %90, ptr %88, align 8
  ret void
}