; Function Attrs: nounwind uwtable
define void @Abc_NtkRecAdd3(ptr noundef %0, i32 noundef %1) local_unnamed_addr #0 {
  %3 = alloca %struct.timespec, align 8
  %4 = alloca %struct.timespec, align 8
  %5 = alloca %struct.If_Par_t_, align 8
  call void @llvm.lifetime.start.p0(i64 16, ptr nonnull %4)
  %6 = call i32 @clock_gettime(i32 noundef 1, ptr noundef nonnull %4) #25
  %7 = icmp slt i32 %6, 0
  br i1 %7, label %Abc_Clock.exit, label %8

8:                                                ; preds = %2
  %9 = load i64, ptr %4, align 8
  %10 = mul nsw i64 %9, 1000000
  %11 = getelementptr inbounds nuw i8, ptr %4, i64 8
  %12 = load i64, ptr %11, align 8
  %13 = sdiv i64 %12, 1000
  %14 = add nsw i64 %13, %10
  %15 = shl i64 %14, 32
  %16 = ashr exact i64 %15, 32
  br label %Abc_Clock.exit

Abc_Clock.exit:                                   ; preds = %2, %8
  %.0.i = phi i64 [ %16, %8 ], [ -1, %2 ]
  call void @llvm.lifetime.end.p0(i64 16, ptr nonnull %4)
  %17 = call i32 @Abc_NtkGetChoiceNum(ptr noundef %0) #25
  %.not = icmp eq i32 %17, 0
  br i1 %.not, label %19, label %18

18:                                               ; preds = %Abc_Clock.exit
  %puts = call i32 @puts(ptr nonnull dereferenceable(1) @str.1)
  br label %19

19:                                               ; preds = %18, %Abc_Clock.exit
  %20 = load ptr, ptr @s_pMan3, align 8
  %21 = getelementptr inbounds nuw i8, ptr %20, i64 16
  store i32 1, ptr %21, align 8
  %22 = getelementptr inbounds nuw i8, ptr %20, i64 24
  %23 = load ptr, ptr %22, align 8
  %.not22 = icmp eq ptr %23, null
  br i1 %.not22, label %28, label %24

24:                                               ; preds = %19
  %25 = getelementptr i8, ptr %23, i64 100
  %.val = load i32, ptr %25, align 4
  %26 = icmp eq i32 %.val, 0
  br i1 %26, label %27, label %28

27:                                               ; preds = %24
  call void @Gia_ManHashStart(ptr noundef nonnull %23) #25
  %.pre = load ptr, ptr @s_pMan3, align 8
  br label %28

28:                                               ; preds = %27, %24, %19
  %29 = phi ptr [ %.pre, %27 ], [ %20, %24 ], [ %20, %19 ]
  %30 = getelementptr inbounds nuw i8, ptr %5, i64 8
  call void @llvm.memset.p0.i64(ptr noundef nonnull align 8 dereferenceable(352) %30, i8 0, i64 344, i1 false)
  %31 = load i32, ptr %29, align 8
  store i32 %31, ptr %5, align 8
  %32 = getelementptr inbounds nuw i8, ptr %29, i64 8
  %33 = load i32, ptr %32, align 8
  %34 = getelementptr inbounds nuw i8, ptr %5, i64 4
  store i32 %33, ptr %34, align 4
  %35 = getelementptr inbounds nuw i8, ptr %5, i64 24
  store float -1.000000e+00, ptr %35, align 8
  %36 = getelementptr inbounds nuw i8, ptr %5, i64 28
  store float 0x3F747AE140000000, ptr %36, align 4
  %37 = getelementptr inbounds nuw i8, ptr %5, i64 56
  store i32 1, ptr %37, align 8
  %.not23 = icmp eq i32 %1, 0
  %spec.select = zext i1 %.not23 to i32
  %not..not23 = xor i1 %.not23, true
  %spec.select28 = zext i1 %not..not23 to i32
  %38 = getelementptr inbounds nuw i8, ptr %5, i64 220
  store i32 1, ptr %38, align 4
  %39 = getelementptr inbounds nuw i8, ptr %5, i64 84
  store i32 %spec.select, ptr %39, align 4
  %40 = getelementptr inbounds nuw i8, ptr %5, i64 224
  store i32 %spec.select28, ptr %40, align 8
  %41 = getelementptr inbounds nuw i8, ptr %5, i64 88
  store i32 %spec.select28, ptr %41, align 8
  %42 = getelementptr inbounds nuw i8, ptr %5, i64 304
  store ptr null, ptr %42, align 8
  %43 = getelementptr inbounds nuw i8, ptr %5, i64 312
  store ptr @Abc_NtkRecAddCut3, ptr %43, align 8
  %44 = call ptr @Abc_NtkIf(ptr noundef %0, ptr noundef nonnull %5) #25
  call void @Abc_NtkDelete(ptr noundef %44) #25
  call void @llvm.lifetime.start.p0(i64 16, ptr nonnull %3)
  %45 = call i32 @clock_gettime(i32 noundef 1, ptr noundef nonnull %3) #25
  %46 = icmp slt i32 %45, 0
  br i1 %46, label %Abc_Clock.exit25, label %47

47:                                               ; preds = %28
  %48 = load i64, ptr %3, align 8
  %49 = mul nsw i64 %48, 1000000
  %50 = getelementptr inbounds nuw i8, ptr %3, i64 8
  %51 = load i64, ptr %50, align 8
  %52 = sdiv i64 %51, 1000
  %53 = add nsw i64 %52, %49
  br label %Abc_Clock.exit25

Abc_Clock.exit25:                                 ; preds = %28, %47
  %.0.i24 = phi i64 [ %53, %47 ], [ -1, %28 ]
  call void @llvm.lifetime.end.p0(i64 16, ptr nonnull %3)
  %54 = sub i64 %.0.i24, %.0.i
  %55 = load ptr, ptr @s_pMan3, align 8
  %56 = getelementptr inbounds nuw i8, ptr %55, i64 16592
  %57 = load i64, ptr %56, align 8
  %58 = add nsw i64 %54, %57
  store i64 %58, ptr %56, align 8
  ret void
}